target datalayout = "e-m:e-p270:32:32-p271:32:32-p272:64:64-i64:64-i128:128-f80:128-n8:16:32:64-S128"
target triple = "x86_64-pc-linux-gnu"

%struct.exr_attr_box2i_t = type { %struct.exr_attr_v2i_t, %struct.exr_attr_v2i_t }
%struct.exr_attr_v2i_t = type { i32, i32 }
%struct._priv_exr_context_t = type { i8, i8, i8, i8, i8, i8, i8, i8, %struct.exr_attr_string_t, %struct.exr_attr_string_t, ptr, ptr, ptr, ptr, ptr, ptr, ptr, ptr, i32, i32, i32, i32, i32, float, ptr, ptr, ptr, i64, ptr, ptr, i64, i32, i32, i32, i32, %struct._priv_exr_part_t, ptr, ptr, %struct.exr_attribute_list, %union.pthread_mutex_t, i8, i8, [2 x i8], i32 }
%struct.exr_attr_string_t = type { i32, i32, ptr }
%struct._priv_exr_part_t = type { i32, i32, %struct.exr_attribute_list, ptr, ptr, ptr, ptr, ptr, ptr, ptr, ptr, ptr, ptr, ptr, ptr, ptr, ptr, %struct.exr_attr_box2i_t, %struct.exr_attr_box2i_t, i32, i32, i32, float, i32, i32, ptr, ptr, ptr, ptr, i64, i16, i16, i32, i64, i64 }
%struct.exr_attribute_list = type { i32, i32, ptr, ptr }
%union.pthread_mutex_t = type { %struct.__pthread_mutex_s }
%struct.__pthread_mutex_s = type { i32, i32, i32, i32, i32, i16, i16, %struct.__pthread_internal_list }
%struct.__pthread_internal_list = type { ptr, ptr }
%struct.exr_attribute_t = type { ptr, ptr, i8, i8, [2 x i8], i32, %union.anon }
%union.anon = type { double }
%struct.exr_attr_chlist_t = type { i32, i32, ptr }
%struct.exr_attr_chlist_entry_t = type { %struct.exr_attr_string_t, i32, i8, [3 x i8], i32, i32 }
%struct.exr_attr_tiledesc_t = type <{ i32, i32, i8 }>

@.str.57 = private unnamed_addr constant [43 x i8] c"'tiles' attribute for tiled file not found\00", align 1
@.str.58 = private unnamed_addr constant [63 x i8] c"'tiles' attribute has wrong data type, expect tile description\00", align 1
@.str.59 = private unnamed_addr constant [40 x i8] c"Invalid tile description size (%u x %u)\00", align 1
@.str.60 = private unnamed_addr constant [46 x i8] c"Width of tile exceeds max size (%d vs max %d)\00", align 1
@.str.61 = private unnamed_addr constant [51 x i8] c"Invalid level mode (%d) in tile description header\00", align 1
@.str.62 = private unnamed_addr constant [54 x i8] c"Invalid rounding mode (%d) in tile description header\00", align 1
@.str.63 = private unnamed_addr constant [67 x i8] c"channel '%s': x subsampling factor is not 1 (%d) for a tiled image\00", align 1
@.str.64 = private unnamed_addr constant [67 x i8] c"channel '%s': y subsampling factor is not 1 (%d) for a tiled image\00", align 1

; Function Attrs: nounwind uwtable
define internal i32 @validate_tile_data(ptr noundef %0, ptr noundef %1) #0 {
  %3 = alloca i32, align 4
  %4 = alloca ptr, align 8
  %5 = alloca ptr, align 8
  %6 = alloca ptr, align 8
  %7 = alloca i32, align 4
  %8 = alloca i32, align 4
  %9 = alloca ptr, align 8
  %10 = alloca i32, align 4
  %11 = alloca i32, align 4
  %12 = alloca i32, align 4
  %13 = alloca i32, align 4
  store ptr %0, ptr %4, align 8, !tbaa !3
  store ptr %1, ptr %5, align 8, !tbaa !8
  %14 = load ptr, ptr %5, align 8, !tbaa !8
  %15 = getelementptr inbounds nuw %struct._priv_exr_part_t, ptr %14, i32 0, i32 1
  %16 = load i32, ptr %15, align 4, !tbaa !71
  %17 = icmp eq i32 %16, 1
  br i1 %17, label %23, label %18

18:                                               ; preds = %2
  %19 = load ptr, ptr %5, align 8, !tbaa !8
  %20 = getelementptr inbounds nuw %struct._priv_exr_part_t, ptr %19, i32 0, i32 1
  %21 = load i32, ptr %20, align 4, !tbaa !71
  %22 = icmp eq i32 %21, 3
  br i1 %22, label %23, label %255

23:                                               ; preds = %18, %2
  call void @llvm.lifetime.start.p0(i64 8, ptr %6) #7
  call void @llvm.lifetime.start.p0(i64 4, ptr %7) #7
  %24 = load ptr, ptr %4, align 8, !tbaa !3
  %25 = getelementptr inbounds nuw %struct._priv_exr_context_t, ptr %24, i32 0, i32 20
  %26 = load i32, ptr %25, align 8, !tbaa !74
  store i32 %26, ptr %7, align 4, !tbaa !25
  call void @llvm.lifetime.start.p0(i64 4, ptr %8) #7
  %27 = load ptr, ptr %4, align 8, !tbaa !3
  %28 = getelementptr inbounds nuw %struct._priv_exr_context_t, ptr %27, i32 0, i32 21
  %29 = load i32, ptr %28, align 4, !tbaa !75
  store i32 %29, ptr %8, align 4, !tbaa !25
  call void @llvm.lifetime.start.p0(i64 8, ptr %9) #7
  %30 = load ptr, ptr %5, align 8, !tbaa !8
  %31 = getelementptr inbounds nuw %struct._priv_exr_part_t, ptr %30, i32 0, i32 3
  %32 = load ptr, ptr %31, align 8, !tbaa !56
  %33 = getelementptr inbounds nuw %struct.exr_attribute_t, ptr %32, i32 0, i32 6
  %34 = load ptr, ptr %33, align 8, !tbaa !27
  store ptr %34, ptr %9, align 8, !tbaa !57
  call void @llvm.lifetime.start.p0(i64 4, ptr %10) #7
  call void @llvm.lifetime.start.p0(i64 4, ptr %11) #7
  %35 = load ptr, ptr %5, align 8, !tbaa !8
  %36 = getelementptr inbounds nuw %struct._priv_exr_part_t, ptr %35, i32 0, i32 11
  %37 = load ptr, ptr %36, align 8, !tbaa !76
  %38 = icmp ne ptr %37, null
  br i1 %38, label %45, label %39

39:                                               ; preds = %23
  %40 = load ptr, ptr %4, align 8, !tbaa !3
  %41 = getelementptr inbounds nuw %struct._priv_exr_context_t, ptr %40, i32 0, i32 14
  %42 = load ptr, ptr %41, align 8, !tbaa !29
  %43 = load ptr, ptr %4, align 8, !tbaa !3
  %44 = call i32 (ptr, i32, ptr, ...) %42(ptr noundef %43, i32 noundef 13, ptr noundef @.str.57)
  store i32 %44, ptr %3, align 4
  store i32 1, ptr %12, align 4
  br label %252

45:                                               ; preds = %23
  %46 = load ptr, ptr %5, align 8, !tbaa !8
  %47 = getelementptr inbounds nuw %struct._priv_exr_part_t, ptr %46, i32 0, i32 11
  %48 = load ptr, ptr %47, align 8, !tbaa !76
  %49 = getelementptr inbounds nuw %struct.exr_attribute_t, ptr %48, i32 0, i32 5
  %50 = load i32, ptr %49, align 4, !tbaa !30
  %51 = icmp ne i32 %50, 21
  br i1 %51, label %52, label %58

52:                                               ; preds = %45
  %53 = load ptr, ptr %4, align 8, !tbaa !3
  %54 = getelementptr inbounds nuw %struct._priv_exr_context_t, ptr %53, i32 0, i32 14
  %55 = load ptr, ptr %54, align 8, !tbaa !29
  %56 = load ptr, ptr %4, align 8, !tbaa !3
  %57 = call i32 (ptr, i32, ptr, ...) %55(ptr noundef %56, i32 noundef 16, ptr noundef @.str.58)
  store i32 %57, ptr %3, align 4
  store i32 1, ptr %12, align 4
  br label %252

58:                                               ; preds = %45
  br label %59

59:                                               ; preds = %58
  %60 = load ptr, ptr %5, align 8, !tbaa !8
  %61 = getelementptr inbounds nuw %struct._priv_exr_part_t, ptr %60, i32 0, i32 11
  %62 = load ptr, ptr %61, align 8, !tbaa !76
  %63 = getelementptr inbounds nuw %struct.exr_attribute_t, ptr %62, i32 0, i32 6
  %64 = load ptr, ptr %63, align 8, !tbaa !27
  store ptr %64, ptr %6, align 8, !tbaa !57
  %65 = load ptr, ptr %6, align 8, !tbaa !57
  %66 = getelementptr inbounds nuw %struct.exr_attr_tiledesc_t, ptr %65, i32 0, i32 2
  %67 = load i8, ptr %66, align 1, !tbaa !77
  %68 = zext i8 %67 to i32
  %69 = and i32 %68, 15
  store i32 %69, ptr %10, align 4, !tbaa !25
  %70 = load ptr, ptr %6, align 8, !tbaa !57
  %71 = getelementptr inbounds nuw %struct.exr_attr_tiledesc_t, ptr %70, i32 0, i32 2
  %72 = load i8, ptr %71, align 1, !tbaa !77
  %73 = zext i8 %72 to i32
  %74 = ashr i32 %73, 4
  %75 = and i32 %74, 15
  store i32 %75, ptr %11, align 4, !tbaa !25
  %76 = load ptr, ptr %6, align 8, !tbaa !57
  %77 = getelementptr inbounds nuw %struct.exr_attr_tiledesc_t, ptr %76, i32 0, i32 0
  %78 = load i32, ptr %77, align 1, !tbaa !79
  %79 = icmp eq i32 %78, 0
  br i1 %79, label %95, label %80

80:                                               ; preds = %59
  %81 = load ptr, ptr %6, align 8, !tbaa !57
  %82 = getelementptr inbounds nuw %struct.exr_attr_tiledesc_t, ptr %81, i32 0, i32 1
  %83 = load i32, ptr %82, align 1, !tbaa !80
  %84 = icmp eq i32 %83, 0
  br i1 %84, label %95, label %85

85:                                               ; preds = %80
  %86 = load ptr, ptr %6, align 8, !tbaa !57
  %87 = getelementptr inbounds nuw %struct.exr_attr_tiledesc_t, ptr %86, i32 0, i32 0
  %88 = load i32, ptr %87, align 1, !tbaa !79
  %89 = icmp ugt i32 %88, 536870911
  br i1 %89, label %95, label %90

90:                                               ; preds = %85
  %91 = load ptr, ptr %6, align 8, !tbaa !57
  %92 = getelementptr inbounds nuw %struct.exr_attr_tiledesc_t, ptr %91, i32 0, i32 1
  %93 = load i32, ptr %92, align 1, !tbaa !80
  %94 = icmp ugt i32 %93, 536870911
  br i1 %94, label %95, label %107

95:                                               ; preds = %90, %85, %80, %59
  %96 = load ptr, ptr %4, align 8, !tbaa !3
  %97 = getelementptr inbounds nuw %struct._priv_exr_context_t, ptr %96, i32 0, i32 14
  %98 = load ptr, ptr %97, align 8, !tbaa !29
  %99 = load ptr, ptr %4, align 8, !tbaa !3
  %100 = load ptr, ptr %6, align 8, !tbaa !57
  %101 = getelementptr inbounds nuw %struct.exr_attr_tiledesc_t, ptr %100, i32 0, i32 0
  %102 = load i32, ptr %101, align 1, !tbaa !79
  %103 = load ptr, ptr %6, align 8, !tbaa !57
  %104 = getelementptr inbounds nuw %struct.exr_attr_tiledesc_t, ptr %103, i32 0, i32 1
  %105 = load i32, ptr %104, align 1, !tbaa !80
  %106 = call i32 (ptr, i32, ptr, ...) %98(ptr noundef %99, i32 noundef 14, ptr noundef @.str.59, i32 noundef %102, i32 noundef %105)
  store i32 %106, ptr %3, align 4
  store i32 1, ptr %12, align 4
  br label %252

107:                                              ; preds = %90
  %108 = load i32, ptr %7, align 4, !tbaa !25
  %109 = icmp sgt i32 %108, 0
  br i1 %109, label %110, label %126

110:                                              ; preds = %107
  %111 = load i32, ptr %7, align 4, !tbaa !25
  %112 = load ptr, ptr %6, align 8, !tbaa !57
  %113 = getelementptr inbounds nuw %struct.exr_attr_tiledesc_t, ptr %112, i32 0, i32 0
  %114 = load i32, ptr %113, align 1, !tbaa !79
  %115 = icmp slt i32 %111, %114
  br i1 %115, label %116, label %126

116:                                              ; preds = %110
  %117 = load ptr, ptr %4, align 8, !tbaa !3
  %118 = getelementptr inbounds nuw %struct._priv_exr_context_t, ptr %117, i32 0, i32 14
  %119 = load ptr, ptr %118, align 8, !tbaa !29
  %120 = load ptr, ptr %4, align 8, !tbaa !3
  %121 = load ptr, ptr %6, align 8, !tbaa !57
  %122 = getelementptr inbounds nuw %struct.exr_attr_tiledesc_t, ptr %121, i32 0, i32 0
  %123 = load i32, ptr %122, align 1, !tbaa !79
  %124 = load i32, ptr %7, align 4, !tbaa !25
  %125 = call i32 (ptr, i32, ptr, ...) %119(ptr noundef %120, i32 noundef 14, ptr noundef @.str.60, i32 noundef %123, i32 noundef %124)
  store i32 %125, ptr %3, align 4
  store i32 1, ptr %12, align 4
  br label %252

126:                                              ; preds = %110, %107
  %127 = load i32, ptr %8, align 4, !tbaa !25
  %128 = icmp sgt i32 %127, 0
  br i1 %128, label %129, label %145

129:                                              ; preds = %126
  %130 = load i32, ptr %8, align 4, !tbaa !25
  %131 = load ptr, ptr %6, align 8, !tbaa !57
  %132 = getelementptr inbounds nuw %struct.exr_attr_tiledesc_t, ptr %131, i32 0, i32 1
  %133 = load i32, ptr %132, align 1, !tbaa !80
  %134 = icmp slt i32 %130, %133
  br i1 %134, label %135, label %145

135:                                              ; preds = %129
  %136 = load ptr, ptr %4, align 8, !tbaa !3
  %137 = getelementptr inbounds nuw %struct._priv_exr_context_t, ptr %136, i32 0, i32 14
  %138 = load ptr, ptr %137, align 8, !tbaa !29
  %139 = load ptr, ptr %4, align 8, !tbaa !3
  %140 = load ptr, ptr %6, align 8, !tbaa !57
  %141 = getelementptr inbounds nuw %struct.exr_attr_tiledesc_t, ptr %140, i32 0, i32 1
  %142 = load i32, ptr %141, align 1, !tbaa !80
  %143 = load i32, ptr %8, align 4, !tbaa !25
  %144 = call i32 (ptr, i32, ptr, ...) %138(ptr noundef %139, i32 noundef 14, ptr noundef @.str.60, i32 noundef %142, i32 noundef %143)
  store i32 %144, ptr %3, align 4
  store i32 1, ptr %12, align 4
  br label %252

145:                                              ; preds = %129, %126
  %146 = load i32, ptr %10, align 4, !tbaa !25
  %147 = icmp slt i32 %146, 0
  br i1 %147, label %151, label %148

148:                                              ; preds = %145
  %149 = load i32, ptr %10, align 4, !tbaa !25
  %150 = icmp sge i32 %149, 3
  br i1 %150, label %151, label %158

151:                                              ; preds = %148, %145
  %152 = load ptr, ptr %4, align 8, !tbaa !3
  %153 = getelementptr inbounds nuw %struct._priv_exr_context_t, ptr %152, i32 0, i32 14
  %154 = load ptr, ptr %153, align 8, !tbaa !29
  %155 = load ptr, ptr %4, align 8, !tbaa !3
  %156 = load i32, ptr %10, align 4, !tbaa !25
  %157 = call i32 (ptr, i32, ptr, ...) %154(ptr noundef %155, i32 noundef 14, ptr noundef @.str.61, i32 noundef %156)
  store i32 %157, ptr %3, align 4
  store i32 1, ptr %12, align 4
  br label %252

158:                                              ; preds = %148
  %159 = load i32, ptr %11, align 4, !tbaa !25
  %160 = icmp slt i32 %159, 0
  br i1 %160, label %164, label %161

161:                                              ; preds = %158
  %162 = load i32, ptr %11, align 4, !tbaa !25
  %163 = icmp sge i32 %162, 2
  br i1 %163, label %164, label %171

164:                                              ; preds = %161, %158
  %165 = load ptr, ptr %4, align 8, !tbaa !3
  %166 = getelementptr inbounds nuw %struct._priv_exr_context_t, ptr %165, i32 0, i32 14
  %167 = load ptr, ptr %166, align 8, !tbaa !29
  %168 = load ptr, ptr %4, align 8, !tbaa !3
  %169 = load i32, ptr %11, align 4, !tbaa !25
  %170 = call i32 (ptr, i32, ptr, ...) %167(ptr noundef %168, i32 noundef 14, ptr noundef @.str.62, i32 noundef %169)
  store i32 %170, ptr %3, align 4
  store i32 1, ptr %12, align 4
  br label %252

171:                                              ; preds = %161
  call void @llvm.lifetime.start.p0(i64 4, ptr %13) #7
  store i32 0, ptr %13, align 4, !tbaa !25
  br label %172

172:                                              ; preds = %246, %171
  %173 = load i32, ptr %13, align 4, !tbaa !25
  %174 = load ptr, ptr %9, align 8, !tbaa !57
  %175 = getelementptr inbounds nuw %struct.exr_attr_chlist_t, ptr %174, i32 0, i32 0
  %176 = load i32, ptr %175, align 8, !tbaa !59
  %177 = icmp slt i32 %173, %176
  br i1 %177, label %179, label %178

178:                                              ; preds = %172
  store i32 2, ptr %12, align 4
  br label %249

179:                                              ; preds = %172
  %180 = load ptr, ptr %9, align 8, !tbaa !57
  %181 = getelementptr inbounds nuw %struct.exr_attr_chlist_t, ptr %180, i32 0, i32 2
  %182 = load ptr, ptr %181, align 8, !tbaa !61
  %183 = load i32, ptr %13, align 4, !tbaa !25
  %184 = sext i32 %183 to i64
  %185 = getelementptr inbounds %struct.exr_attr_chlist_entry_t, ptr %182, i64 %184
  %186 = getelementptr inbounds nuw %struct.exr_attr_chlist_entry_t, ptr %185, i32 0, i32 4
  %187 = load i32, ptr %186, align 8, !tbaa !62
  %188 = icmp ne i32 %187, 1
  br i1 %188, label %189, label %212

189:                                              ; preds = %179
  %190 = load ptr, ptr %4, align 8, !tbaa !3
  %191 = getelementptr inbounds nuw %struct._priv_exr_context_t, ptr %190, i32 0, i32 14
  %192 = load ptr, ptr %191, align 8, !tbaa !29
  %193 = load ptr, ptr %4, align 8, !tbaa !3
  %194 = load ptr, ptr %9, align 8, !tbaa !57
  %195 = getelementptr inbounds nuw %struct.exr_attr_chlist_t, ptr %194, i32 0, i32 2
  %196 = load ptr, ptr %195, align 8, !tbaa !61
  %197 = load i32, ptr %13, align 4, !tbaa !25
  %198 = sext i32 %197 to i64
  %199 = getelementptr inbounds %struct.exr_attr_chlist_entry_t, ptr %196, i64 %198
  %200 = getelementptr inbounds nuw %struct.exr_attr_chlist_entry_t, ptr %199, i32 0, i32 0
  %201 = getelementptr inbounds nuw %struct.exr_attr_string_t, ptr %200, i32 0, i32 2
  %202 = load ptr, ptr %201, align 8, !tbaa !65
  %203 = load ptr, ptr %9, align 8, !tbaa !57
  %204 = getelementptr inbounds nuw %struct.exr_attr_chlist_t, ptr %203, i32 0, i32 2
  %205 = load ptr, ptr %204, align 8, !tbaa !61
  %206 = load i32, ptr %13, align 4, !tbaa !25
  %207 = sext i32 %206 to i64
  %208 = getelementptr inbounds %struct.exr_attr_chlist_entry_t, ptr %205, i64 %207
  %209 = getelementptr inbounds nuw %struct.exr_attr_chlist_entry_t, ptr %208, i32 0, i32 4
  %210 = load i32, ptr %209, align 8, !tbaa !62
  %211 = call i32 (ptr, i32, ptr, ...) %192(ptr noundef %193, i32 noundef 14, ptr noundef @.str.63, ptr noundef %202, i32 noundef %210)
  store i32 %211, ptr %3, align 4
  store i32 1, ptr %12, align 4
  br label %249

212:                                              ; preds = %179
  %213 = load ptr, ptr %9, align 8, !tbaa !57
  %214 = getelementptr inbounds nuw %struct.exr_attr_chlist_t, ptr %213, i32 0, i32 2
  %215 = load ptr, ptr %214, align 8, !tbaa !61
  %216 = load i32, ptr %13, align 4, !tbaa !25
  %217 = sext i32 %216 to i64
  %218 = getelementptr inbounds %struct.exr_attr_chlist_entry_t, ptr %215, i64 %217
  %219 = getelementptr inbounds nuw %struct.exr_attr_chlist_entry_t, ptr %218, i32 0, i32 5
  %220 = load i32, ptr %219, align 4, !tbaa !64
  %221 = icmp ne i32 %220, 1
  br i1 %221, label %222, label %245

222:                                              ; preds = %212
  %223 = load ptr, ptr %4, align 8, !tbaa !3
  %224 = getelementptr inbounds nuw %struct._priv_exr_context_t, ptr %223, i32 0, i32 14
  %225 = load ptr, ptr %224, align 8, !tbaa !29
  %226 = load ptr, ptr %4, align 8, !tbaa !3
  %227 = load ptr, ptr %9, align 8, !tbaa !57
  %228 = getelementptr inbounds nuw %struct.exr_attr_chlist_t, ptr %227, i32 0, i32 2
  %229 = load ptr, ptr %228, align 8, !tbaa !61
  %230 = load i32, ptr %13, align 4, !tbaa !25
  %231 = sext i32 %230 to i64
  %232 = getelementptr inbounds %struct.exr_attr_chlist_entry_t, ptr %229, i64 %231
  %233 = getelementptr inbounds nuw %struct.exr_attr_chlist_entry_t, ptr %232, i32 0, i32 0
  %234 = getelementptr inbounds nuw %struct.exr_attr_string_t, ptr %233, i32 0, i32 2
  %235 = load ptr, ptr %234, align 8, !tbaa !65
  %236 = load ptr, ptr %9, align 8, !tbaa !57
  %237 = getelementptr inbounds nuw %struct.exr_attr_chlist_t, ptr %236, i32 0, i32 2
  %238 = load ptr, ptr %237, align 8, !tbaa !61
  %239 = load i32, ptr %13, align 4, !tbaa !25
  %240 = sext i32 %239 to i64
  %241 = getelementptr inbounds %struct.exr_attr_chlist_entry_t, ptr %238, i64 %240
  %242 = getelementptr inbounds nuw %struct.exr_attr_chlist_entry_t, ptr %241, i32 0, i32 5
  %243 = load i32, ptr %242, align 4, !tbaa !64
  %244 = call i32 (ptr, i32, ptr, ...) %225(ptr noundef %226, i32 noundef 14, ptr noundef @.str.64, ptr noundef %235, i32 noundef %243)
  store i32 %244, ptr %3, align 4
  store i32 1, ptr %12, align 4
  br label %249

245:                                              ; preds = %212
  br label %246

246:                                              ; preds = %245
  %247 = load i32, ptr %13, align 4, !tbaa !25
  %248 = add nsw i32 %247, 1
  store i32 %248, ptr %13, align 4, !tbaa !25
  br label %172, !llvm.loop !81

249:                                              ; preds = %222, %189, %178
  call void @llvm.lifetime.end.p0(i64 4, ptr %13) #7
  %250 = load i32, ptr %12, align 4
  switch i32 %250, label %252 [
    i32 2, label %251
  ]

251:                                              ; preds = %249
  store i32 0, ptr %12, align 4
  br label %252

252:                                              ; preds = %251, %249, %164, %151, %135, %116, %95, %52, %39
  call void @llvm.lifetime.end.p0(i64 4, ptr %11) #7
  call void @llvm.lifetime.end.p0(i64 4, ptr %10) #7
  call void @llvm.lifetime.end.p0(i64 8, ptr %9) #7
  call void @llvm.lifetime.end.p0(i64 4, ptr %8) #7
  call void @llvm.lifetime.end.p0(i64 4, ptr %7) #7
  call void @llvm.lifetime.end.p0(i64 8, ptr %6) #7
  %253 = load i32, ptr %12, align 4
  switch i32 %253, label %258 [
    i32 0, label %254
    i32 1, label %256
  ]

254:                                              ; preds = %252
  br label %255

255:                                              ; preds = %254, %18
  store i32 0, ptr %3, align 4
  br label %256

256:                                              ; preds = %255, %252
  %257 = load i32, ptr %3, align 4
  ret i32 %257

258:                                              ; preds = %252
  unreachable
}