; Function Attrs: nounwind uwtable
define internal fastcc i32 @validate_tile_data(ptr noundef %0, ptr noundef readonly captures(none) %1) unnamed_addr #0 {
  %3 = getelementptr inbounds nuw i8, ptr %1, i64 4
  %4 = load i32, ptr %3, align 4, !tbaa !59
  switch i32 %4, label %.thread [
    i32 1, label %5
    i32 3, label %5
  ]

5:                                                ; preds = %2, %2
  %6 = getelementptr inbounds nuw i8, ptr %0, i64 112
  %7 = load i32, ptr %6, align 8, !tbaa !62
  %8 = getelementptr inbounds nuw i8, ptr %0, i64 116
  %9 = load i32, ptr %8, align 4, !tbaa !63
  %10 = getelementptr inbounds nuw i8, ptr %1, i64 32
  %11 = load ptr, ptr %10, align 8, !tbaa !46
  %12 = getelementptr inbounds nuw i8, ptr %11, i64 24
  %13 = load ptr, ptr %12, align 8, !tbaa !27
  %14 = getelementptr inbounds nuw i8, ptr %1, i64 96
  %15 = load ptr, ptr %14, align 8, !tbaa !64
  %.not = icmp eq ptr %15, null
  br i1 %.not, label %16, label %20

16:                                               ; preds = %5
  %17 = getelementptr inbounds nuw i8, ptr %0, i64 72
  %18 = load ptr, ptr %17, align 8, !tbaa !23
  %19 = tail call i32 (ptr, i32, ptr, ...) %18(ptr noundef nonnull %0, i32 noundef 13, ptr noundef nonnull @.str.57) #7
  br label %.thread

20:                                               ; preds = %5
  %21 = getelementptr inbounds nuw i8, ptr %15, i64 20
  %22 = load i32, ptr %21, align 4, !tbaa !24
  %.not84 = icmp eq i32 %22, 21
  br i1 %.not84, label %27, label %23

23:                                               ; preds = %20
  %24 = getelementptr inbounds nuw i8, ptr %0, i64 72
  %25 = load ptr, ptr %24, align 8, !tbaa !23
  %26 = tail call i32 (ptr, i32, ptr, ...) %25(ptr noundef nonnull %0, i32 noundef 16, ptr noundef nonnull @.str.58) #7
  br label %.thread

27:                                               ; preds = %20
  %28 = getelementptr inbounds nuw i8, ptr %15, i64 24
  %29 = load ptr, ptr %28, align 8, !tbaa !27
  %30 = getelementptr inbounds nuw i8, ptr %29, i64 8
  %31 = load i8, ptr %30, align 1, !tbaa !65
  %32 = zext i8 %31 to i32
  %33 = and i32 %32, 15
  %34 = lshr i32 %32, 4
  %35 = load i32, ptr %29, align 1, !tbaa !67
  %36 = icmp eq i32 %35, 0
  %.phi.trans.insert = getelementptr inbounds nuw i8, ptr %29, i64 4
  %.pre = load i32, ptr %.phi.trans.insert, align 1, !tbaa !68
  br i1 %36, label %._crit_edge, label %37

37:                                               ; preds = %27
  %38 = icmp ugt i32 %35, 536870911
  %39 = add i32 %.pre, -536870912
  %40 = icmp ult i32 %39, -536870911
  %or.cond88 = or i1 %38, %40
  br i1 %or.cond88, label %._crit_edge, label %44

._crit_edge:                                      ; preds = %27, %37
  %41 = getelementptr inbounds nuw i8, ptr %0, i64 72
  %42 = load ptr, ptr %41, align 8, !tbaa !23
  %43 = tail call i32 (ptr, i32, ptr, ...) %42(ptr noundef nonnull %0, i32 noundef 14, ptr noundef nonnull @.str.59, i32 noundef %35, i32 noundef %.pre) #7
  br label %.thread

44:                                               ; preds = %37
  %45 = icmp sgt i32 %7, 0
  %46 = icmp slt i32 %7, %35
  %or.cond89 = and i1 %45, %46
  br i1 %or.cond89, label %47, label %51

47:                                               ; preds = %44
  %48 = getelementptr inbounds nuw i8, ptr %0, i64 72
  %49 = load ptr, ptr %48, align 8, !tbaa !23
  %50 = tail call i32 (ptr, i32, ptr, ...) %49(ptr noundef nonnull %0, i32 noundef 14, ptr noundef nonnull @.str.60, i32 noundef %35, i32 noundef %7) #7
  br label %.thread

51:                                               ; preds = %44
  %52 = icmp sgt i32 %9, 0
  %53 = icmp samesign ult i32 %9, %.pre
  %or.cond93 = select i1 %52, i1 %53, i1 false
  br i1 %or.cond93, label %54, label %58

54:                                               ; preds = %51
  %55 = getelementptr inbounds nuw i8, ptr %0, i64 72
  %56 = load ptr, ptr %55, align 8, !tbaa !23
  %57 = tail call i32 (ptr, i32, ptr, ...) %56(ptr noundef nonnull %0, i32 noundef 14, ptr noundef nonnull @.str.60, i32 noundef %.pre, i32 noundef %9) #7
  br label %.thread

58:                                               ; preds = %51
  %59 = icmp samesign ugt i32 %33, 2
  br i1 %59, label %60, label %64

60:                                               ; preds = %58
  %61 = getelementptr inbounds nuw i8, ptr %0, i64 72
  %62 = load ptr, ptr %61, align 8, !tbaa !23
  %63 = tail call i32 (ptr, i32, ptr, ...) %62(ptr noundef nonnull %0, i32 noundef 14, ptr noundef nonnull @.str.61, i32 noundef %33) #7
  br label %.thread

64:                                               ; preds = %58
  %65 = icmp ugt i8 %31, 31
  br i1 %65, label %69, label %.preheader

.preheader:                                       ; preds = %64
  %66 = load i32, ptr %13, align 8, !tbaa !48
  %.not8798 = icmp sgt i32 %66, 0
  br i1 %.not8798, label %.lr.ph, label %.thread

.lr.ph:                                           ; preds = %.preheader
  %67 = getelementptr inbounds nuw i8, ptr %13, i64 8
  %68 = load ptr, ptr %67, align 8, !tbaa !50
  %wide.trip.count = zext nneg i32 %66 to i64
  br label %74

69:                                               ; preds = %64
  %70 = getelementptr inbounds nuw i8, ptr %0, i64 72
  %71 = load ptr, ptr %70, align 8, !tbaa !23
  %72 = tail call i32 (ptr, i32, ptr, ...) %71(ptr noundef nonnull %0, i32 noundef 14, ptr noundef nonnull @.str.62, i32 noundef %34) #7
  br label %.thread

73:                                               ; preds = %84
  %indvars.iv.next = add nuw nsw i64 %indvars.iv, 1
  %exitcond.not = icmp eq i64 %indvars.iv.next, %wide.trip.count
  br i1 %exitcond.not, label %.thread, label %74, !llvm.loop !69

74:                                               ; preds = %.lr.ph, %73
  %indvars.iv = phi i64 [ 0, %.lr.ph ], [ %indvars.iv.next, %73 ]
  %75 = getelementptr inbounds nuw %struct.exr_attr_chlist_entry_t, ptr %68, i64 %indvars.iv
  %76 = getelementptr inbounds nuw i8, ptr %75, i64 24
  %77 = load i32, ptr %76, align 8, !tbaa !53
  %.not85 = icmp eq i32 %77, 1
  br i1 %.not85, label %84, label %78

78:                                               ; preds = %74
  %79 = getelementptr inbounds nuw i8, ptr %0, i64 72
  %80 = load ptr, ptr %79, align 8, !tbaa !23
  %81 = getelementptr inbounds nuw i8, ptr %75, i64 8
  %82 = load ptr, ptr %81, align 8, !tbaa !56
  %83 = tail call i32 (ptr, i32, ptr, ...) %80(ptr noundef %0, i32 noundef 14, ptr noundef nonnull @.str.63, ptr noundef %82, i32 noundef %77) #7
  br label %.thread

84:                                               ; preds = %74
  %85 = getelementptr inbounds nuw i8, ptr %75, i64 28
  %86 = load i32, ptr %85, align 4, !tbaa !55
  %.not86 = icmp eq i32 %86, 1
  br i1 %.not86, label %73, label %87

87:                                               ; preds = %84
  %88 = getelementptr inbounds nuw i8, ptr %0, i64 72
  %89 = load ptr, ptr %88, align 8, !tbaa !23
  %90 = getelementptr inbounds nuw i8, ptr %75, i64 8
  %91 = load ptr, ptr %90, align 8, !tbaa !56
  %92 = tail call i32 (ptr, i32, ptr, ...) %89(ptr noundef %0, i32 noundef 14, ptr noundef nonnull @.str.64, ptr noundef %91, i32 noundef %86) #7
  br label %.thread

.thread:                                          ; preds = %73, %.preheader, %87, %78, %16, %69, %60, %54, %47, %._crit_edge, %23, %2
  %.2 = phi i32 [ 0, %2 ], [ %92, %87 ], [ %83, %78 ], [ %19, %16 ], [ %72, %69 ], [ %63, %60 ], [ %57, %54 ], [ %50, %47 ], [ %43, %._crit_edge ], [ %26, %23 ], [ 0, %.preheader ], [ 0, %73 ]
  ret i32 %.2
}